; Function Attrs: mustprogress uwtable
define void @_ZN32pxrInternal_v0_24__pxrReserved__10TfRealPathERKNSt7__cxx1112basic_stringIcSt11char_traitsIcESaIcEEEbPS5_(ptr dead_on_unwind noalias writable sret(%"class.std::__cxx11::basic_string") align 8 %0, ptr noundef nonnull align 8 dereferenceable(32) %1, i1 noundef zeroext %2, ptr noundef %3) local_unnamed_addr #0 personality ptr @__gxx_personality_v0 {
  %5 = alloca %"class.std::__cxx11::basic_string", align 8
  %6 = alloca %"class.std::__cxx11::basic_string", align 8
  %7 = alloca %"class.std::__cxx11::basic_string", align 8
  %8 = alloca %"class.std::__cxx11::basic_string", align 8
  %9 = alloca %"class.std::__cxx11::basic_string", align 8
  %10 = alloca %"class.std::allocator", align 1
  %11 = alloca [4096 x i8], align 16
  %12 = alloca %"class.std::__cxx11::basic_string", align 8
  %13 = alloca %"class.std::__cxx11::basic_string", align 8
  call void @_ZNSt7__cxx1112basic_stringIcSt11char_traitsIcESaIcEEC1Ev(ptr noundef nonnull align 8 dereferenceable(32) %5) #18
  %.not = icmp eq ptr %3, null
  br i1 %.not, label %15, label %14

14:                                               ; preds = %4
  call void @_ZNSt7__cxx1112basic_stringIcSt11char_traitsIcESaIcEE5clearEv(ptr noundef nonnull align 8 dereferenceable(32) %3) #18
  br label %15

15:                                               ; preds = %4, %14
  %.0 = phi ptr [ %3, %14 ], [ %5, %4 ]
  %16 = call noundef zeroext i1 @_ZNKSt7__cxx1112basic_stringIcSt11char_traitsIcESaIcEE5emptyEv(ptr noundef nonnull align 8 dereferenceable(32) %1) #18
  br i1 %16, label %17, label %18

17:                                               ; preds = %15
  call void @_ZNSt7__cxx1112basic_stringIcSt11char_traitsIcESaIcEEC1Ev(ptr noundef nonnull align 8 dereferenceable(32) %0) #18
  br label %53

18:                                               ; preds = %15
  call void @_ZNSt7__cxx1112basic_stringIcSt11char_traitsIcESaIcEEC1Ev(ptr noundef nonnull align 8 dereferenceable(32) %6) #18
  invoke void @_ZNSt7__cxx1112basic_stringIcSt11char_traitsIcESaIcEEC1ERKS4_(ptr noundef nonnull align 8 dereferenceable(32) %7, ptr noundef nonnull align 8 dereferenceable(32) %1)
          to label %19 unwind label %25

19:                                               ; preds = %18
  br i1 %2, label %20, label %36

20:                                               ; preds = %19
  %21 = invoke noundef i64 @_ZN32pxrInternal_v0_24__pxrReserved__29TfFindLongestAccessiblePrefixERKNSt7__cxx1112basic_stringIcSt11char_traitsIcESaIcEEEPS5_(ptr noundef nonnull align 8 dereferenceable(32) %1, ptr noundef nonnull %.0)
          to label %22 unwind label %27

22:                                               ; preds = %20
  %23 = call noundef zeroext i1 @_ZNKSt7__cxx1112basic_stringIcSt11char_traitsIcESaIcEE5emptyEv(ptr noundef nonnull align 8 dereferenceable(32) %.0) #18
  br i1 %23, label %29, label %24

24:                                               ; preds = %22
  call void @_ZNSt7__cxx1112basic_stringIcSt11char_traitsIcESaIcEEC1Ev(ptr noundef nonnull align 8 dereferenceable(32) %0) #18
  br label %_ZN32pxrInternal_v0_24__pxrReserved__9TfAbsPathERKNSt7__cxx1112basic_stringIcSt11char_traitsIcESaIcEEE.exit

25:                                               ; preds = %18
  %26 = landingpad { ptr, i32 }
          cleanup
  br label %52

27:                                               ; preds = %38, %47, %42, %29, %20
  %28 = landingpad { ptr, i32 }
          cleanup
  br label %51

29:                                               ; preds = %22
  invoke void @_ZNSt7__cxx1112basic_stringIcSt11char_traitsIcESaIcEEC1ERKS4_mm(ptr noundef nonnull align 8 dereferenceable(32) %8, ptr noundef nonnull align 8 dereferenceable(32) %1, i64 noundef 0, i64 noundef %21)
          to label %30 unwind label %27

30:                                               ; preds = %29
  %31 = call noundef nonnull align 8 dereferenceable(32) ptr @_ZNSt7__cxx1112basic_stringIcSt11char_traitsIcESaIcEEaSEOS4_(ptr noundef nonnull align 8 dereferenceable(32) %7, ptr noundef nonnull align 8 dereferenceable(32) %8) #18
  call void @_ZNSt7__cxx1112basic_stringIcSt11char_traitsIcESaIcEED1Ev(ptr noundef nonnull align 8 dereferenceable(32) %8) #18
  call void @_ZNSaIcEC1Ev(ptr noundef nonnull align 1 dereferenceable(1) %10) #18
  invoke void @_ZNSt7__cxx1112basic_stringIcSt11char_traitsIcESaIcEEC1ERKS4_mRKS3_(ptr noundef nonnull align 8 dereferenceable(32) %9, ptr noundef nonnull align 8 dereferenceable(32) %1, i64 noundef %21, ptr noundef nonnull align 1 dereferenceable(1) %10)
          to label %32 unwind label %34

32:                                               ; preds = %30
  %33 = call noundef nonnull align 8 dereferenceable(32) ptr @_ZNSt7__cxx1112basic_stringIcSt11char_traitsIcESaIcEEaSEOS4_(ptr noundef nonnull align 8 dereferenceable(32) %6, ptr noundef nonnull align 8 dereferenceable(32) %9) #18
  call void @_ZNSt7__cxx1112basic_stringIcSt11char_traitsIcESaIcEED1Ev(ptr noundef nonnull align 8 dereferenceable(32) %9) #18
  call void @_ZNSaIcED1Ev(ptr noundef nonnull align 1 dereferenceable(1) %10) #18
  br label %36

34:                                               ; preds = %30
  %35 = landingpad { ptr, i32 }
          cleanup
  call void @_ZNSaIcED1Ev(ptr noundef nonnull align 1 dereferenceable(1) %10) #18
  br label %51

36:                                               ; preds = %32, %19
  %37 = call noundef zeroext i1 @_ZNKSt7__cxx1112basic_stringIcSt11char_traitsIcESaIcEE5emptyEv(ptr noundef nonnull align 8 dereferenceable(32) %7) #18
  br i1 %37, label %38, label %39

38:                                               ; preds = %36
  invoke void @_ZN32pxrInternal_v0_24__pxrReserved__11ArchAbsPathERKNSt7__cxx1112basic_stringIcSt11char_traitsIcESaIcEEE(ptr dead_on_unwind writable sret(%"class.std::__cxx11::basic_string") align 8 %0, ptr noundef nonnull align 8 dereferenceable(32) %6)
          to label %_ZN32pxrInternal_v0_24__pxrReserved__9TfAbsPathERKNSt7__cxx1112basic_stringIcSt11char_traitsIcESaIcEEE.exit unwind label %27

39:                                               ; preds = %36
  %40 = call noundef ptr @_ZNKSt7__cxx1112basic_stringIcSt11char_traitsIcESaIcEE5c_strEv(ptr noundef nonnull align 8 dereferenceable(32) %7) #18
  %41 = call ptr @realpath(ptr noundef %40, ptr noundef nonnull %11) #18
  %.not18 = icmp eq ptr %41, null
  br i1 %.not18, label %42, label %47

42:                                               ; preds = %39
  %43 = tail call ptr @__errno_location() #19
  %44 = load i32, ptr %43, align 4
  invoke void @_ZN32pxrInternal_v0_24__pxrReserved__12ArchStrerrorB5cxx11Ei(ptr dead_on_unwind nonnull writable sret(%"class.std::__cxx11::basic_string") align 8 %12, i32 noundef %44)
          to label %45 unwind label %27

45:                                               ; preds = %42
  %46 = call noundef nonnull align 8 dereferenceable(32) ptr @_ZNSt7__cxx1112basic_stringIcSt11char_traitsIcESaIcEEaSEOS4_(ptr noundef nonnull align 8 dereferenceable(32) %.0, ptr noundef nonnull align 8 dereferenceable(32) %12) #18
  call void @_ZNSt7__cxx1112basic_stringIcSt11char_traitsIcESaIcEED1Ev(ptr noundef nonnull align 8 dereferenceable(32) %12) #18
  call void @_ZNSt7__cxx1112basic_stringIcSt11char_traitsIcESaIcEEC1Ev(ptr noundef nonnull align 8 dereferenceable(32) %0) #18
  br label %_ZN32pxrInternal_v0_24__pxrReserved__9TfAbsPathERKNSt7__cxx1112basic_stringIcSt11char_traitsIcESaIcEEE.exit

47:                                               ; preds = %39
  invoke void @_ZStplIcSt11char_traitsIcESaIcEENSt7__cxx1112basic_stringIT_T0_T1_EEPKS5_RKS8_(ptr dead_on_unwind nonnull writable sret(%"class.std::__cxx11::basic_string") align 8 %13, ptr noundef nonnull %11, ptr noundef nonnull align 8 dereferenceable(32) %6)
          to label %48 unwind label %27

48:                                               ; preds = %47
  invoke void @_ZN32pxrInternal_v0_24__pxrReserved__11ArchAbsPathERKNSt7__cxx1112basic_stringIcSt11char_traitsIcESaIcEEE(ptr dead_on_unwind writable sret(%"class.std::__cxx11::basic_string") align 8 %0, ptr noundef nonnull align 8 dereferenceable(32) %13)
          to label %_ZN32pxrInternal_v0_24__pxrReserved__9TfAbsPathERKNSt7__cxx1112basic_stringIcSt11char_traitsIcESaIcEEE.exit21 unwind label %49

_ZN32pxrInternal_v0_24__pxrReserved__9TfAbsPathERKNSt7__cxx1112basic_stringIcSt11char_traitsIcESaIcEEE.exit21: ; preds = %48
  call void @_ZNSt7__cxx1112basic_stringIcSt11char_traitsIcESaIcEED1Ev(ptr noundef nonnull align 8 dereferenceable(32) %13) #18
  br label %_ZN32pxrInternal_v0_24__pxrReserved__9TfAbsPathERKNSt7__cxx1112basic_stringIcSt11char_traitsIcESaIcEEE.exit

49:                                               ; preds = %48
  %50 = landingpad { ptr, i32 }
          cleanup
  call void @_ZNSt7__cxx1112basic_stringIcSt11char_traitsIcESaIcEED1Ev(ptr noundef nonnull align 8 dereferenceable(32) %13) #18
  br label %51

_ZN32pxrInternal_v0_24__pxrReserved__9TfAbsPathERKNSt7__cxx1112basic_stringIcSt11char_traitsIcESaIcEEE.exit: ; preds = %38, %_ZN32pxrInternal_v0_24__pxrReserved__9TfAbsPathERKNSt7__cxx1112basic_stringIcSt11char_traitsIcESaIcEEE.exit21, %45, %24
  call void @_ZNSt7__cxx1112basic_stringIcSt11char_traitsIcESaIcEED1Ev(ptr noundef nonnull align 8 dereferenceable(32) %7) #18
  call void @_ZNSt7__cxx1112basic_stringIcSt11char_traitsIcESaIcEED1Ev(ptr noundef nonnull align 8 dereferenceable(32) %6) #18
  br label %53

51:                                               ; preds = %49, %34, %27
  %.pn = phi { ptr, i32 } [ %28, %27 ], [ %50, %49 ], [ %35, %34 ]
  call void @_ZNSt7__cxx1112basic_stringIcSt11char_traitsIcESaIcEED1Ev(ptr noundef nonnull align 8 dereferenceable(32) %7) #18
  br label %52

52:                                               ; preds = %51, %25
  %.pn.pn = phi { ptr, i32 } [ %.pn, %51 ], [ %26, %25 ]
  call void @_ZNSt7__cxx1112basic_stringIcSt11char_traitsIcESaIcEED1Ev(ptr noundef nonnull align 8 dereferenceable(32) %6) #18
  call void @_ZNSt7__cxx1112basic_stringIcSt11char_traitsIcESaIcEED1Ev(ptr noundef nonnull align 8 dereferenceable(32) %5) #18
  resume { ptr, i32 } %.pn.pn

53:                                               ; preds = %_ZN32pxrInternal_v0_24__pxrReserved__9TfAbsPathERKNSt7__cxx1112basic_stringIcSt11char_traitsIcESaIcEEE.exit, %17
  call void @_ZNSt7__cxx1112basic_stringIcSt11char_traitsIcESaIcEED1Ev(ptr noundef nonnull align 8 dereferenceable(32) %5) #18
  ret void
}